target datalayout = "e-m:e-p270:32:32-p271:32:32-p272:64:64-i64:64-i128:128-f80:128-n8:16:32:64-S128"
target triple = "x86_64-pc-linux-gnu"

%struct.pmix_list_t = type { %struct.pmix_object_t, %struct.pmix_list_item_t, i64 }
%struct.pmix_object_t = type { %union.pthread_mutex_t, ptr, i32, %struct.pmix_tma }
%union.pthread_mutex_t = type { %struct.__pthread_mutex_s }
%struct.__pthread_mutex_s = type { i32, i32, i32, i32, i32, i16, i16, %struct.__pthread_internal_list }
%struct.__pthread_internal_list = type { ptr, ptr }
%struct.pmix_tma = type { ptr, ptr, ptr, ptr, ptr, ptr, ptr, ptr }
%struct.pmix_list_item_t = type { %struct.pmix_object_t, ptr, ptr, i32 }
%struct.pmix_mca_base_framework_t = type { ptr, ptr, ptr, ptr, ptr, ptr, i32, i32, ptr, ptr, i32, i32, %struct.pmix_list_t, %struct.pmix_list_t }
%struct.pmix_output_desc_t = type { i8, i8, i32, i8, i32, ptr, ptr, i32, ptr, i32, i8, i8, i8, i8, ptr, i32, i32 }
%struct.prte_process_info_t = type { %struct.pmix_proc, %struct.pmix_proc, ptr, %struct.pmix_proc, i32, i32, i32, ptr, ptr, i32, i8, ptr, i16, ptr, ptr, i8, ptr, i8 }
%struct.pmix_proc = type { [256 x i8], i32 }
%struct.pmix_class_t = type { ptr, ptr, ptr, ptr, i32, i32, ptr, ptr, i64 }
%struct.prte_state_base_module_1_0_0_t = type { ptr, ptr, ptr, ptr, ptr, ptr, ptr, ptr, ptr, ptr }
%struct.timeval = type { i64, i64 }
%struct.prte_job_t = type { %struct.pmix_list_item_t, i32, ptr, ptr, [256 x i8], ptr, i32, i32, ptr, ptr, i32, i32, i32, i32, ptr, ptr, ptr, i32, i32, i32, i32, i32, i32, i32, %struct.pmix_proc, i32, i16, %struct.pmix_list_t, %struct.pmix_data_buffer, %struct.pmix_list_t, [256 x i8], i32, ptr, %struct.pmix_cli_result_t }
%struct.pmix_data_buffer = type { ptr, ptr, ptr, i64, i64 }
%struct.pmix_cli_result_t = type { %struct.pmix_object_t, %struct.pmix_list_t, ptr }
%struct.prte_state_caddy_t = type { %struct.pmix_object_t, %struct.event, ptr, i32, %struct.pmix_proc, i32 }
%struct.event = type { %struct.event_callback, %union.anon.0, i32, ptr, %union.anon.2, i16, i16, %struct.timeval }
%struct.event_callback = type { %struct.anon, i16, i8, i8, %union.anon, ptr }
%struct.anon = type { ptr, ptr }
%union.anon = type { ptr }
%union.anon.0 = type { %struct.anon.1 }
%struct.anon.1 = type { ptr, ptr }
%union.anon.2 = type { %struct.anon.3 }
%struct.anon.3 = type { %struct.anon.4, %struct.timeval }
%struct.anon.4 = type { ptr, ptr }

@prte_state_base_framework = external global %struct.pmix_mca_base_framework_t, align 8
@pmix_output_info = external global [0 x %struct.pmix_output_desc_t], align 8
@prte_process_info = external global %struct.prte_process_info_t, align 8
@.str.1 = private unnamed_addr constant [5 x i8] c"NULL\00", align 1
@.str.14 = private unnamed_addr constant [42 x i8] c"%s [%f] ACTIVATE JOB %s STATE %s AT %s:%d\00", align 1
@.str.15 = private unnamed_addr constant [22 x i8] c"base/state_base_fns.c\00", align 1
@prte_state = external global %struct.prte_state_base_module_1_0_0_t, align 8
@.str.59 = private unnamed_addr constant [21 x i8] c"pthread_mutex_lock()\00", align 1

; Function Attrs: inlinehint nounwind uwtable
define internal void @pmix_tma_free(ptr noundef %0, ptr noundef %1) #2 {
  %3 = alloca ptr, align 8
  %4 = alloca ptr, align 8
  store ptr %0, ptr %3, align 8, !tbaa !52
  store ptr %1, ptr %4, align 8, !tbaa !3
  %5 = load ptr, ptr %3, align 8, !tbaa !52
  %6 = icmp ne ptr null, %5
  br i1 %6, label %7, label %13

7:                                                ; preds = %2
  %8 = load ptr, ptr %3, align 8, !tbaa !52
  %9 = getelementptr inbounds nuw %struct.pmix_tma, ptr %8, i32 0, i32 5
  %10 = load ptr, ptr %9, align 8, !tbaa !76
  %11 = load ptr, ptr %3, align 8, !tbaa !52
  %12 = load ptr, ptr %4, align 8, !tbaa !3
  call void %10(ptr noundef %11, ptr noundef %12)
  br label %15

13:                                               ; preds = %2
  %14 = load ptr, ptr %4, align 8, !tbaa !3
  call void @free(ptr noundef %14) #13
  br label %15

15:                                               ; preds = %13, %7
  ret void
}

; Function Attrs: inlinehint nounwind uwtable
define internal void @pmix_obj_run_destructors(ptr noundef %0) #2 {
  %2 = alloca ptr, align 8
  %3 = alloca ptr, align 8
  store ptr %0, ptr %2, align 8, !tbaa !56
  call void @llvm.lifetime.start.p0(i64 8, ptr %3) #13
  %4 = load ptr, ptr %2, align 8, !tbaa !56
  %5 = getelementptr inbounds nuw %struct.pmix_object_t, ptr %4, i32 0, i32 1
  %6 = load ptr, ptr %5, align 8, !tbaa !59
  %7 = getelementptr inbounds nuw %struct.pmix_class_t, ptr %6, i32 0, i32 7
  %8 = load ptr, ptr %7, align 8, !tbaa !74
  store ptr %8, ptr %3, align 8, !tbaa !3
  br label %9

9:                                                ; preds = %13, %1
  %10 = load ptr, ptr %3, align 8, !tbaa !3
  %11 = load ptr, ptr %10, align 8, !tbaa !3
  %12 = icmp ne ptr null, %11
  br i1 %12, label %13, label %19

13:                                               ; preds = %9
  %14 = load ptr, ptr %3, align 8, !tbaa !3
  %15 = load ptr, ptr %14, align 8, !tbaa !3
  %16 = load ptr, ptr %2, align 8, !tbaa !56
  call void %15(ptr noundef %16)
  %17 = load ptr, ptr %3, align 8, !tbaa !3
  %18 = getelementptr inbounds nuw ptr, ptr %17, i32 1
  store ptr %18, ptr %3, align 8, !tbaa !3
  br label %9, !llvm.loop !75

19:                                               ; preds = %9
  call void @llvm.lifetime.end.p0(i64 8, ptr %3) #13
  ret void
}

; Function Attrs: alwaysinline nounwind uwtable
define internal i32 @pmix_obj_update(ptr noundef %0, i32 noundef %1) #5 {
  %3 = alloca ptr, align 8
  %4 = alloca i32, align 4
  %5 = alloca i32, align 4
  store ptr %0, ptr %3, align 8, !tbaa !56
  store i32 %1, ptr %4, align 4, !tbaa !7
  call void @llvm.lifetime.start.p0(i64 4, ptr %5) #13
  %6 = load ptr, ptr %3, align 8, !tbaa !56
  %7 = getelementptr inbounds nuw %struct.pmix_object_t, ptr %6, i32 0, i32 0
  %8 = call i32 @pthread_mutex_lock(ptr noundef %7) #13
  store i32 %8, ptr %5, align 4, !tbaa !7
  %9 = load i32, ptr %5, align 4, !tbaa !7
  %10 = icmp eq i32 %9, 35
  br i1 %10, label %11, label %14

11:                                               ; preds = %2
  %12 = load i32, ptr %5, align 4, !tbaa !7
  %13 = call ptr @__errno_location() #14
  store i32 %12, ptr %13, align 4, !tbaa !7
  call void @perror(ptr noundef @.str.59)
  call void @abort() #15
  unreachable

14:                                               ; preds = %2
  %15 = load i32, ptr %4, align 4, !tbaa !7
  %16 = load ptr, ptr %3, align 8, !tbaa !56
  %17 = getelementptr inbounds nuw %struct.pmix_object_t, ptr %16, i32 0, i32 2
  %18 = load i32, ptr %17, align 8, !tbaa !60
  %19 = add nsw i32 %18, %15
  store i32 %19, ptr %17, align 8, !tbaa !60
  store i32 %19, ptr %5, align 4, !tbaa !7
  %20 = load ptr, ptr %3, align 8, !tbaa !56
  %21 = getelementptr inbounds nuw %struct.pmix_object_t, ptr %20, i32 0, i32 0
  %22 = call i32 @pthread_mutex_unlock(ptr noundef %21) #13
  %23 = load i32, ptr %5, align 4, !tbaa !7
  call void @llvm.lifetime.end.p0(i64 4, ptr %5) #13
  ret i32 %23
}

; Function Attrs: nounwind uwtable
define void @prte_state_base_local_launch_complete(i32 noundef %0, i16 noundef signext %1, ptr noundef %2) #0 {
  %4 = alloca i32, align 4
  %5 = alloca i16, align 2
  %6 = alloca ptr, align 8
  %7 = alloca ptr, align 8
  %8 = alloca ptr, align 8
  %9 = alloca i8, align 1
  %10 = alloca ptr, align 8
  %11 = alloca double, align 8
  %12 = alloca %struct.timeval, align 8
  %13 = alloca ptr, align 8
  store i32 %0, ptr %4, align 4, !tbaa !7
  store i16 %1, ptr %5, align 2, !tbaa !89
  store ptr %2, ptr %6, align 8, !tbaa !3
  call void @llvm.lifetime.start.p0(i64 8, ptr %7) #13
  %14 = load ptr, ptr %6, align 8, !tbaa !3
  store ptr %14, ptr %7, align 8, !tbaa !3
  call void @llvm.lifetime.start.p0(i64 8, ptr %8) #13
  %15 = load ptr, ptr %7, align 8, !tbaa !3
  %16 = getelementptr inbounds nuw %struct.prte_state_caddy_t, ptr %15, i32 0, i32 2
  %17 = load ptr, ptr %16, align 8, !tbaa !33
  store ptr %17, ptr %8, align 8, !tbaa !3
  call void @llvm.lifetime.start.p0(i64 1, ptr %9) #13
  store i8 0, ptr %9, align 1, !tbaa !90
  %18 = load ptr, ptr %8, align 8, !tbaa !3
  %19 = getelementptr inbounds nuw %struct.prte_job_t, ptr %18, i32 0, i32 27
  %20 = call zeroext i1 @prte_get_attribute(ptr noundef %19, i16 noundef zeroext 304, ptr noundef null, i16 noundef zeroext 1)
  %21 = zext i1 %20 to i8
  store i8 %21, ptr %9, align 1, !tbaa !90
  %22 = load i8, ptr %9, align 1, !tbaa !90, !range !91, !noundef !92
  %23 = trunc i8 %22 to i1
  br i1 %23, label %24, label %89

24:                                               ; preds = %3
  %25 = load ptr, ptr %8, align 8, !tbaa !3
  %26 = getelementptr inbounds nuw %struct.prte_job_t, ptr %25, i32 0, i32 22
  %27 = load i32, ptr %26, align 4, !tbaa !93
  %28 = urem i32 %27, 100
  %29 = icmp eq i32 0, %28
  br i1 %29, label %36, label %30

30:                                               ; preds = %24
  %31 = load ptr, ptr %8, align 8, !tbaa !3
  %32 = getelementptr inbounds nuw %struct.prte_job_t, ptr %31, i32 0, i32 22
  %33 = load i32, ptr %32, align 4, !tbaa !93
  %34 = load i32, ptr getelementptr inbounds nuw (%struct.prte_process_info_t, ptr @prte_process_info, i32 0, i32 5), align 8, !tbaa !101
  %35 = icmp eq i32 %33, %34
  br i1 %35, label %36, label %88

36:                                               ; preds = %30, %24
  br label %37

37:                                               ; preds = %36
  call void @llvm.lifetime.start.p0(i64 8, ptr %10) #13
  %38 = load ptr, ptr %8, align 8, !tbaa !3
  store ptr %38, ptr %10, align 8, !tbaa !3
  %39 = load i32, ptr getelementptr inbounds nuw (%struct.pmix_mca_base_framework_t, ptr @prte_state_base_framework, i32 0, i32 10), align 8, !tbaa !17
  %40 = icmp sgt i32 %39, 0
  br i1 %40, label %41, label %83

41:                                               ; preds = %37
  call void @llvm.lifetime.start.p0(i64 8, ptr %11) #13
  store double 0.000000e+00, ptr %11, align 8, !tbaa !23
  br label %42

42:                                               ; preds = %41
  call void @llvm.lifetime.start.p0(i64 16, ptr %12) #13
  %43 = call i32 @gettimeofday(ptr noundef %12, ptr noundef null) #13
  %44 = getelementptr inbounds nuw %struct.timeval, ptr %12, i32 0, i32 0
  %45 = load i64, ptr %44, align 8, !tbaa !25
  %46 = sitofp i64 %45 to double
  store double %46, ptr %11, align 8, !tbaa !23
  %47 = getelementptr inbounds nuw %struct.timeval, ptr %12, i32 0, i32 1
  %48 = load i64, ptr %47, align 8, !tbaa !27
  %49 = sitofp i64 %48 to double
  %50 = fdiv double %49, 1.000000e+06
  %51 = load double, ptr %11, align 8, !tbaa !23
  %52 = fadd double %51, %50
  store double %52, ptr %11, align 8, !tbaa !23
  call void @llvm.lifetime.end.p0(i64 16, ptr %12) #13
  br label %53

53:                                               ; preds = %42
  br label %54

54:                                               ; preds = %53
  %55 = load i32, ptr getelementptr inbounds nuw (%struct.pmix_mca_base_framework_t, ptr @prte_state_base_framework, i32 0, i32 11), align 4, !tbaa !28
  %56 = icmp sge i32 %55, 0
  br i1 %56, label %57, label %82

57:                                               ; preds = %54
  %58 = load i32, ptr getelementptr inbounds nuw (%struct.pmix_mca_base_framework_t, ptr @prte_state_base_framework, i32 0, i32 11), align 4, !tbaa !28
  %59 = icmp slt i32 %58, 64
  br i1 %59, label %60, label %82

60:                                               ; preds = %57
  %61 = load i32, ptr getelementptr inbounds nuw (%struct.pmix_mca_base_framework_t, ptr @prte_state_base_framework, i32 0, i32 11), align 4, !tbaa !28
  %62 = sext i32 %61 to i64
  %63 = getelementptr inbounds [0 x %struct.pmix_output_desc_t], ptr @pmix_output_info, i64 0, i64 %62
  %64 = getelementptr inbounds nuw %struct.pmix_output_desc_t, ptr %63, i32 0, i32 2
  %65 = load i32, ptr %64, align 4, !tbaa !29
  %66 = icmp sge i32 %65, 1
  br i1 %66, label %67, label %82

67:                                               ; preds = %60
  %68 = load i32, ptr getelementptr inbounds nuw (%struct.pmix_mca_base_framework_t, ptr @prte_state_base_framework, i32 0, i32 11), align 4, !tbaa !28
  %69 = call ptr @prte_util_print_name_args(ptr noundef @prte_process_info)
  %70 = load double, ptr %11, align 8, !tbaa !23
  %71 = load ptr, ptr %10, align 8, !tbaa !3
  %72 = icmp eq ptr null, %71
  br i1 %72, label %73, label %74

73:                                               ; preds = %67
  br label %79

74:                                               ; preds = %67
  %75 = load ptr, ptr %10, align 8, !tbaa !3
  %76 = getelementptr inbounds nuw %struct.prte_job_t, ptr %75, i32 0, i32 4
  %77 = getelementptr inbounds [256 x i8], ptr %76, i64 0, i64 0
  %78 = call ptr @prte_util_print_jobids(ptr noundef %77)
  br label %79

79:                                               ; preds = %74, %73
  %80 = phi ptr [ @.str.1, %73 ], [ %78, %74 ]
  %81 = call ptr @prte_job_state_to_str(i32 noundef 67)
  call void (i32, ptr, ...) @pmix_output(i32 noundef %68, ptr noundef @.str.14, ptr noundef %69, double noundef %70, ptr noundef %80, ptr noundef %81, ptr noundef @.str.15, i32 noundef 329)
  br label %82

82:                                               ; preds = %79, %60, %57, %54
  call void @llvm.lifetime.end.p0(i64 8, ptr %11) #13
  br label %83

83:                                               ; preds = %82, %37
  %84 = load ptr, ptr getelementptr inbounds nuw (%struct.prte_state_base_module_1_0_0_t, ptr @prte_state, i32 0, i32 2), align 8, !tbaa !103
  %85 = load ptr, ptr %10, align 8, !tbaa !3
  call void %84(ptr noundef %85, i32 noundef 67)
  call void @llvm.lifetime.end.p0(i64 8, ptr %10) #13
  br label %86

86:                                               ; preds = %83
  br label %87

87:                                               ; preds = %86
  br label %88

88:                                               ; preds = %87, %30
  br label %89

89:                                               ; preds = %88, %3
  br label %90

90:                                               ; preds = %89
  call void @llvm.lifetime.start.p0(i64 8, ptr %13) #13
  %91 = load ptr, ptr %7, align 8, !tbaa !3
  store ptr %91, ptr %13, align 8, !tbaa !56
  %92 = load ptr, ptr %13, align 8, !tbaa !56
  %93 = call i32 @pmix_obj_update(ptr noundef %92, i32 noundef -1)
  %94 = icmp eq i32 0, %93
  br i1 %94, label %95, label %109

95:                                               ; preds = %90
  %96 = load ptr, ptr %13, align 8, !tbaa !56
  call void @pmix_obj_run_destructors(ptr noundef %96)
  %97 = load ptr, ptr %13, align 8, !tbaa !56
  %98 = getelementptr inbounds nuw %struct.pmix_object_t, ptr %97, i32 0, i32 3
  %99 = getelementptr inbounds nuw %struct.pmix_tma, ptr %98, i32 0, i32 5
  %100 = load ptr, ptr %99, align 8, !tbaa !65
  %101 = icmp ne ptr null, %100
  br i1 %101, label %102, label %106

102:                                              ; preds = %95
  %103 = load ptr, ptr %13, align 8, !tbaa !56
  %104 = getelementptr inbounds nuw %struct.pmix_object_t, ptr %103, i32 0, i32 3
  %105 = load ptr, ptr %7, align 8, !tbaa !3
  call void @pmix_tma_free(ptr noundef %104, ptr noundef %105)
  br label %108

106:                                              ; preds = %95
  %107 = load ptr, ptr %7, align 8, !tbaa !3
  call void @free(ptr noundef %107) #13
  br label %108

108:                                              ; preds = %106, %102
  store ptr null, ptr %7, align 8, !tbaa !3
  br label %109

109:                                              ; preds = %108, %90
  call void @llvm.lifetime.end.p0(i64 8, ptr %13) #13
  br label %110

110:                                              ; preds = %109
  br label %111

111:                                              ; preds = %110
  call void @llvm.lifetime.end.p0(i64 1, ptr %9) #13
  call void @llvm.lifetime.end.p0(i64 8, ptr %8) #13
  call void @llvm.lifetime.end.p0(i64 8, ptr %7) #13
  ret void
}