; Function Attrs: nounwind uwtable
define void @prte_state_base_local_launch_complete(i32 noundef %0, i16 noundef signext %1, ptr noundef %2) local_unnamed_addr #0 {
  %4 = alloca %struct.timeval, align 8
  %5 = getelementptr inbounds nuw i8, ptr %2, i64 248
  %6 = load ptr, ptr %5, align 8, !tbaa !39
  %7 = getelementptr inbounds nuw i8, ptr %6, i64 792
  %8 = tail call zeroext i1 @prte_get_attribute(ptr noundef nonnull %7, i16 noundef zeroext 304, ptr noundef null, i16 noundef zeroext 1) #14
  br i1 %8, label %9, label %41

9:                                                ; preds = %3
  %10 = getelementptr inbounds nuw i8, ptr %6, i64 516
  %11 = load i32, ptr %10, align 4, !tbaa !71
  %12 = urem i32 %11, 100
  %13 = icmp eq i32 %12, 0
  %14 = load i32, ptr getelementptr inbounds nuw (i8, ptr @prte_process_info, i64 792), align 8
  %15 = icmp eq i32 %11, %14
  %or.cond21 = select i1 %13, i1 true, i1 %15
  br i1 %or.cond21, label %16, label %41

16:                                               ; preds = %9
  %17 = load i32, ptr getelementptr inbounds nuw (i8, ptr @prte_state_base_framework, i64 72), align 8, !tbaa !17
  %18 = icmp sgt i32 %17, 0
  br i1 %18, label %19, label %39

19:                                               ; preds = %16
  call void @llvm.lifetime.start.p0(i64 16, ptr nonnull %4) #14
  %20 = call i32 @gettimeofday(ptr noundef nonnull %4, ptr noundef null) #14
  %21 = load i64, ptr %4, align 8, !tbaa !21
  %22 = sitofp i64 %21 to double
  %23 = getelementptr inbounds nuw i8, ptr %4, i64 8
  %24 = load i64, ptr %23, align 8, !tbaa !23
  %25 = sitofp i64 %24 to double
  %26 = fdiv double %25, 1.000000e+06
  %27 = fadd double %26, %22
  call void @llvm.lifetime.end.p0(i64 16, ptr nonnull %4) #14
  %28 = load i32, ptr getelementptr inbounds nuw (i8, ptr @prte_state_base_framework, i64 76), align 4, !tbaa !24
  %or.cond = icmp ult i32 %28, 64
  br i1 %or.cond, label %29, label %39

29:                                               ; preds = %19
  %30 = zext nneg i32 %28 to i64
  %31 = getelementptr inbounds nuw [0 x %struct.pmix_output_desc_t], ptr @pmix_output_info, i64 0, i64 %30, i32 2
  %32 = load i32, ptr %31, align 4, !tbaa !25
  %33 = icmp sgt i32 %32, 0
  br i1 %33, label %34, label %39

34:                                               ; preds = %29
  %35 = tail call ptr @prte_util_print_name_args(ptr noundef nonnull @prte_process_info) #14
  %36 = getelementptr inbounds nuw i8, ptr %6, i64 168
  %37 = tail call ptr @prte_util_print_jobids(ptr noundef nonnull %36) #14
  %38 = tail call ptr @prte_job_state_to_str(i32 noundef 67) #14
  tail call void (i32, ptr, ...) @pmix_output(i32 noundef %28, ptr noundef nonnull @.str.14, ptr noundef %35, double noundef %27, ptr noundef %37, ptr noundef %38, ptr noundef nonnull @.str.15, i32 noundef 329) #14
  br label %39

39:                                               ; preds = %19, %29, %34, %16
  %40 = load ptr, ptr getelementptr inbounds nuw (i8, ptr @prte_state, i64 16), align 8, !tbaa !79
  tail call void %40(ptr noundef nonnull %6, i32 noundef 67) #14
  br label %41

41:                                               ; preds = %9, %3, %39
  %42 = tail call i32 @pthread_mutex_lock(ptr noundef nonnull %2) #14
  %43 = icmp eq i32 %42, 35
  br i1 %43, label %44, label %pmix_obj_update.exit

44:                                               ; preds = %41
  %45 = tail call ptr @__errno_location() #16
  store i32 35, ptr %45, align 4, !tbaa !31
  tail call void @perror(ptr noundef nonnull @.str.59) #17
  tail call void @abort() #18
  unreachable

pmix_obj_update.exit:                             ; preds = %41
  %46 = getelementptr inbounds nuw i8, ptr %2, i64 48
  %47 = load i32, ptr %46, align 8, !tbaa !34
  %48 = add nsw i32 %47, -1
  store i32 %48, ptr %46, align 8, !tbaa !34
  %49 = tail call i32 @pthread_mutex_unlock(ptr noundef nonnull %2) #14
  %50 = icmp eq i32 %48, 0
  br i1 %50, label %51, label %65

51:                                               ; preds = %pmix_obj_update.exit
  %52 = getelementptr inbounds nuw i8, ptr %2, i64 40
  %53 = load ptr, ptr %52, align 8, !tbaa !33
  %54 = getelementptr inbounds nuw i8, ptr %53, i64 48
  %55 = load ptr, ptr %54, align 8, !tbaa !57
  %56 = load ptr, ptr %55, align 8, !tbaa !36
  %.not6.i = icmp eq ptr %56, null
  br i1 %.not6.i, label %pmix_obj_run_destructors.exit, label %.lr.ph.i

.lr.ph.i:                                         ; preds = %51, %.lr.ph.i
  %57 = phi ptr [ %59, %.lr.ph.i ], [ %56, %51 ]
  %.07.i = phi ptr [ %58, %.lr.ph.i ], [ %55, %51 ]
  tail call void %57(ptr noundef nonnull %2) #14
  %58 = getelementptr inbounds nuw i8, ptr %.07.i, i64 8
  %59 = load ptr, ptr %58, align 8, !tbaa !36
  %.not.i = icmp eq ptr %59, null
  br i1 %.not.i, label %pmix_obj_run_destructors.exit, label %.lr.ph.i, !llvm.loop !58

pmix_obj_run_destructors.exit:                    ; preds = %.lr.ph.i, %51
  %60 = getelementptr inbounds nuw i8, ptr %2, i64 96
  %61 = load ptr, ptr %60, align 8, !tbaa !59
  %.not = icmp eq ptr %61, null
  br i1 %.not, label %64, label %62

62:                                               ; preds = %pmix_obj_run_destructors.exit
  %63 = getelementptr inbounds nuw i8, ptr %2, i64 56
  tail call void %61(ptr noundef nonnull %63, ptr noundef nonnull %2) #14
  br label %65

64:                                               ; preds = %pmix_obj_run_destructors.exit
  tail call void @free(ptr noundef nonnull %2) #14
  br label %65

65:                                               ; preds = %62, %64, %pmix_obj_update.exit
  ret void
}